target datalayout = "e-m:e-p270:32:32-p271:32:32-p272:64:64-i64:64-i128:128-f80:128-n8:16:32:64-S128"
target triple = "x86_64-pc-linux-gnu"

%struct.hwloc_obj = type { i32, ptr, i32, ptr, i64, ptr, i32, i32, ptr, ptr, ptr, i32, ptr, ptr, i32, ptr, ptr, ptr, i32, i32, ptr, i32, ptr, i32, ptr, ptr, ptr, ptr, ptr, ptr, i32, ptr, i64 }

; Function Attrs: inlinehint nounwind willreturn memory(read) uwtable
define internal i32 @hwloc_get_nbobjs_inside_cpuset_by_depth(ptr noundef %0, ptr noundef %1, i32 noundef %2) #2 {
  %4 = alloca i32, align 4
  %5 = alloca ptr, align 8
  %6 = alloca ptr, align 8
  %7 = alloca i32, align 4
  %8 = alloca ptr, align 8
  %9 = alloca i32, align 4
  %10 = alloca i32, align 4
  store ptr %0, ptr %5, align 8, !tbaa !3
  store ptr %1, ptr %6, align 8, !tbaa !27
  store i32 %2, ptr %7, align 4, !tbaa !19
  call void @llvm.lifetime.start.p0(i64 8, ptr %8) #10
  %11 = load ptr, ptr %5, align 8, !tbaa !3
  %12 = load i32, ptr %7, align 4, !tbaa !19
  %13 = call ptr @hwloc_get_obj_by_depth(ptr noundef %11, i32 noundef %12, i32 noundef 0) #11
  store ptr %13, ptr %8, align 8, !tbaa !8
  call void @llvm.lifetime.start.p0(i64 4, ptr %9) #10
  store i32 0, ptr %9, align 4, !tbaa !19
  %14 = load ptr, ptr %8, align 8, !tbaa !8
  %15 = icmp ne ptr %14, null
  br i1 %15, label %17, label %16

16:                                               ; preds = %3
  store i32 0, ptr %4, align 4
  store i32 1, ptr %10, align 4
  br label %43

17:                                               ; preds = %3
  br label %18

18:                                               ; preds = %37, %17
  %19 = load ptr, ptr %8, align 8, !tbaa !8
  %20 = icmp ne ptr %19, null
  br i1 %20, label %21, label %41

21:                                               ; preds = %18
  %22 = load ptr, ptr %8, align 8, !tbaa !8
  %23 = getelementptr inbounds nuw %struct.hwloc_obj, ptr %22, i32 0, i32 25
  %24 = load ptr, ptr %23, align 8, !tbaa !10
  %25 = call i32 @hwloc_bitmap_iszero(ptr noundef %24) #11
  %26 = icmp ne i32 %25, 0
  br i1 %26, label %37, label %27

27:                                               ; preds = %21
  %28 = load ptr, ptr %8, align 8, !tbaa !8
  %29 = getelementptr inbounds nuw %struct.hwloc_obj, ptr %28, i32 0, i32 25
  %30 = load ptr, ptr %29, align 8, !tbaa !10
  %31 = load ptr, ptr %6, align 8, !tbaa !27
  %32 = call i32 @hwloc_bitmap_isincluded(ptr noundef %30, ptr noundef %31) #11
  %33 = icmp ne i32 %32, 0
  br i1 %33, label %34, label %37

34:                                               ; preds = %27
  %35 = load i32, ptr %9, align 4, !tbaa !19
  %36 = add i32 %35, 1
  store i32 %36, ptr %9, align 4, !tbaa !19
  br label %37

37:                                               ; preds = %34, %27, %21
  %38 = load ptr, ptr %8, align 8, !tbaa !8
  %39 = getelementptr inbounds nuw %struct.hwloc_obj, ptr %38, i32 0, i32 8
  %40 = load ptr, ptr %39, align 8, !tbaa !117
  store ptr %40, ptr %8, align 8, !tbaa !8
  br label %18, !llvm.loop !149

41:                                               ; preds = %18
  %42 = load i32, ptr %9, align 4, !tbaa !19
  store i32 %42, ptr %4, align 4
  store i32 1, ptr %10, align 4
  br label %43

43:                                               ; preds = %41, %16
  call void @llvm.lifetime.end.p0(i64 4, ptr %9) #10
  call void @llvm.lifetime.end.p0(i64 8, ptr %8) #10
  %44 = load i32, ptr %4, align 4
  ret i32 %44
}

; Function Attrs: inlinehint nounwind willreturn memory(read) uwtable
define internal i32 @hwloc_get_nbobjs_inside_cpuset_by_type(ptr noundef %0, ptr noundef %1, i32 noundef %2) #2 {
  %4 = alloca i32, align 4
  %5 = alloca ptr, align 8
  %6 = alloca ptr, align 8
  %7 = alloca i32, align 4
  %8 = alloca i32, align 4
  %9 = alloca i32, align 4
  store ptr %0, ptr %5, align 8, !tbaa !3
  store ptr %1, ptr %6, align 8, !tbaa !27
  store i32 %2, ptr %7, align 4, !tbaa !19
  call void @llvm.lifetime.start.p0(i64 4, ptr %8) #10
  %10 = load ptr, ptr %5, align 8, !tbaa !3
  %11 = load i32, ptr %7, align 4, !tbaa !19
  %12 = call i32 @hwloc_get_type_depth(ptr noundef %10, i32 noundef %11)
  store i32 %12, ptr %8, align 4, !tbaa !19
  %13 = load i32, ptr %8, align 4, !tbaa !19
  %14 = icmp eq i32 %13, -1
  br i1 %14, label %15, label %16

15:                                               ; preds = %3
  store i32 0, ptr %4, align 4
  store i32 1, ptr %9, align 4
  br label %25

16:                                               ; preds = %3
  %17 = load i32, ptr %8, align 4, !tbaa !19
  %18 = icmp eq i32 %17, -2
  br i1 %18, label %19, label %20

19:                                               ; preds = %16
  store i32 -1, ptr %4, align 4
  store i32 1, ptr %9, align 4
  br label %25

20:                                               ; preds = %16
  %21 = load ptr, ptr %5, align 8, !tbaa !3
  %22 = load ptr, ptr %6, align 8, !tbaa !27
  %23 = load i32, ptr %8, align 4, !tbaa !19
  %24 = call i32 @hwloc_get_nbobjs_inside_cpuset_by_depth(ptr noundef %21, ptr noundef %22, i32 noundef %23) #11
  store i32 %24, ptr %4, align 4
  store i32 1, ptr %9, align 4
  br label %25

25:                                               ; preds = %20, %19, %15
  call void @llvm.lifetime.end.p0(i64 4, ptr %8) #10
  %26 = load i32, ptr %4, align 4
  ret i32 %26
}

; Function Attrs: nounwind uwtable
define i32 @prte_hwloc_base_get_npus(ptr noundef %0, i1 noundef zeroext %1, ptr noundef %2, ptr noundef %3) #0 {
  %5 = alloca i32, align 4
  %6 = alloca ptr, align 8
  %7 = alloca i8, align 1
  %8 = alloca ptr, align 8
  %9 = alloca ptr, align 8
  %10 = alloca i32, align 4
  %11 = alloca ptr, align 8
  %12 = alloca i32, align 4
  store ptr %0, ptr %6, align 8, !tbaa !3
  %13 = zext i1 %1 to i8
  store i8 %13, ptr %7, align 1, !tbaa !20
  store ptr %2, ptr %8, align 8, !tbaa !27
  store ptr %3, ptr %9, align 8, !tbaa !8
  call void @llvm.lifetime.start.p0(i64 4, ptr %10) #10
  store i32 0, ptr %10, align 4, !tbaa !19
  call void @llvm.lifetime.start.p0(i64 8, ptr %11) #10
  %14 = load ptr, ptr %9, align 8, !tbaa !8
  %15 = getelementptr inbounds nuw %struct.hwloc_obj, ptr %14, i32 0, i32 25
  %16 = load ptr, ptr %15, align 8, !tbaa !10
  %17 = icmp eq ptr null, %16
  br i1 %17, label %18, label %19

18:                                               ; preds = %4
  store i32 0, ptr %5, align 4
  store i32 1, ptr %12, align 4
  br label %48

19:                                               ; preds = %4
  %20 = load ptr, ptr %8, align 8, !tbaa !27
  %21 = icmp eq ptr null, %20
  br i1 %21, label %22, label %27

22:                                               ; preds = %19
  %23 = load ptr, ptr %9, align 8, !tbaa !8
  %24 = getelementptr inbounds nuw %struct.hwloc_obj, ptr %23, i32 0, i32 25
  %25 = load ptr, ptr %24, align 8, !tbaa !10
  %26 = call noalias ptr @hwloc_bitmap_dup(ptr noundef %25)
  store ptr %26, ptr %11, align 8, !tbaa !27
  br label %35

27:                                               ; preds = %19
  %28 = call noalias ptr @hwloc_bitmap_alloc()
  store ptr %28, ptr %11, align 8, !tbaa !27
  %29 = load ptr, ptr %11, align 8, !tbaa !27
  %30 = load ptr, ptr %9, align 8, !tbaa !8
  %31 = getelementptr inbounds nuw %struct.hwloc_obj, ptr %30, i32 0, i32 25
  %32 = load ptr, ptr %31, align 8, !tbaa !10
  %33 = load ptr, ptr %8, align 8, !tbaa !27
  %34 = call i32 @hwloc_bitmap_and(ptr noundef %29, ptr noundef %32, ptr noundef %33)
  br label %35

35:                                               ; preds = %27, %22
  %36 = load i8, ptr %7, align 1, !tbaa !20, !range !22, !noundef !23
  %37 = trunc i8 %36 to i1
  br i1 %37, label %42, label %38

38:                                               ; preds = %35
  %39 = load ptr, ptr %6, align 8, !tbaa !3
  %40 = load ptr, ptr %11, align 8, !tbaa !27
  %41 = call i32 @hwloc_get_nbobjs_inside_cpuset_by_type(ptr noundef %39, ptr noundef %40, i32 noundef 2) #11
  store i32 %41, ptr %10, align 4, !tbaa !19
  br label %45

42:                                               ; preds = %35
  %43 = load ptr, ptr %11, align 8, !tbaa !27
  %44 = call i32 @hwloc_bitmap_weight(ptr noundef %43) #11
  store i32 %44, ptr %10, align 4, !tbaa !19
  br label %45

45:                                               ; preds = %42, %38
  %46 = load ptr, ptr %11, align 8, !tbaa !27
  call void @hwloc_bitmap_free(ptr noundef %46)
  %47 = load i32, ptr %10, align 4, !tbaa !19
  store i32 %47, ptr %5, align 4
  store i32 1, ptr %12, align 4
  br label %48

48:                                               ; preds = %45, %18
  call void @llvm.lifetime.end.p0(i64 8, ptr %11) #10
  call void @llvm.lifetime.end.p0(i64 4, ptr %10) #10
  %49 = load i32, ptr %5, align 4
  ret i32 %49
}