; Function Attrs: nounwind uwtable
define i32 @prte_hwloc_base_get_npus(ptr noundef %0, i1 noundef zeroext %1, ptr noundef %2, ptr noundef readonly captures(none) %3) local_unnamed_addr #0 {
  %5 = getelementptr inbounds nuw i8, ptr %3, i64 184
  %6 = load ptr, ptr %5, align 8, !tbaa !3
  %7 = icmp eq ptr %6, null
  br i1 %7, label %33, label %8

8:                                                ; preds = %4
  %9 = icmp eq ptr %2, null
  br i1 %9, label %10, label %12

10:                                               ; preds = %8
  %11 = tail call noalias ptr @hwloc_bitmap_dup(ptr noundef nonnull %6) #18
  br label %16

12:                                               ; preds = %8
  %13 = tail call noalias ptr @hwloc_bitmap_alloc() #18
  %14 = load ptr, ptr %5, align 8, !tbaa !3
  %15 = tail call i32 @hwloc_bitmap_and(ptr noundef %13, ptr noundef %14, ptr noundef nonnull %2) #18
  br label %16

16:                                               ; preds = %12, %10
  %.0 = phi ptr [ %11, %10 ], [ %13, %12 ]
  br i1 %1, label %31, label %17

17:                                               ; preds = %16
  %18 = tail call i32 @hwloc_get_type_depth(ptr noundef %0, i32 noundef 2) #18
  switch i32 %18, label %20 [
    i32 -1, label %hwloc_get_nbobjs_inside_cpuset_by_type.exit
    i32 -2, label %19
  ]

19:                                               ; preds = %17
  br label %hwloc_get_nbobjs_inside_cpuset_by_type.exit

20:                                               ; preds = %17
  %21 = tail call ptr @hwloc_get_obj_by_depth(ptr noundef readonly %0, i32 noundef range(i32 0, -2) %18, i32 noundef 0) #19
  %.not.i.i = icmp eq ptr %21, null
  br i1 %.not.i.i, label %hwloc_get_nbobjs_inside_cpuset_by_type.exit, label %.preheader.i.i

.preheader.i.i:                                   ; preds = %20, %28
  %.017.i.i = phi i32 [ %.1.i.i, %28 ], [ 0, %20 ]
  %.01016.i.i = phi ptr [ %30, %28 ], [ %21, %20 ]
  %22 = getelementptr inbounds nuw i8, ptr %.01016.i.i, i64 184
  %23 = load ptr, ptr %22, align 8, !tbaa !3
  %24 = tail call i32 @hwloc_bitmap_iszero(ptr noundef %23) #19
  %.not14.i.i = icmp eq i32 %24, 0
  br i1 %.not14.i.i, label %25, label %28

25:                                               ; preds = %.preheader.i.i
  %26 = tail call i32 @hwloc_bitmap_isincluded(ptr noundef %23, ptr noundef readonly %.0) #19
  %.not15.i.i = icmp ne i32 %26, 0
  %27 = zext i1 %.not15.i.i to i32
  %spec.select.i.i = add i32 %.017.i.i, %27
  br label %28

28:                                               ; preds = %25, %.preheader.i.i
  %.1.i.i = phi i32 [ %.017.i.i, %.preheader.i.i ], [ %spec.select.i.i, %25 ]
  %29 = getelementptr inbounds nuw i8, ptr %.01016.i.i, i64 56
  %30 = load ptr, ptr %29, align 8, !tbaa !42
  %.not13.i.i = icmp eq ptr %30, null
  br i1 %.not13.i.i, label %hwloc_get_nbobjs_inside_cpuset_by_type.exit, label %.preheader.i.i, !llvm.loop !80

31:                                               ; preds = %16
  %32 = tail call i32 @hwloc_bitmap_weight(ptr noundef %.0) #19
  br label %hwloc_get_nbobjs_inside_cpuset_by_type.exit

hwloc_get_nbobjs_inside_cpuset_by_type.exit:      ; preds = %28, %20, %19, %17, %31
  %.012 = phi i32 [ %32, %31 ], [ -1, %19 ], [ 0, %17 ], [ 0, %20 ], [ %.1.i.i, %28 ]
  tail call void @hwloc_bitmap_free(ptr noundef %.0) #18
  br label %33

33:                                               ; preds = %4, %hwloc_get_nbobjs_inside_cpuset_by_type.exit
  %.013 = phi i32 [ %.012, %hwloc_get_nbobjs_inside_cpuset_by_type.exit ], [ 0, %4 ]
  ret i32 %.013
}